; ModuleID = 'source-C-CXX/0/79.c'
source_filename = "source-C-CXX/0/79.c"
target datalayout = "e-m:e-p270:32:32-p271:32:32-p272:64:64-i64:64-f80:128-n8:16:32:64-S128"
target triple = "x86_64-pc-linux-gnu"

@.str = private unnamed_addr constant [3 x i8] c"%d\00", align 1
@.str.1 = private unnamed_addr constant [4 x i8] c"%d\0A\00", align 1

; Function Attrs: nofree nosync nounwind readnone sspstrong uwtable
define dso_local i32 @func(i32 %0, i32 %1) local_unnamed_addr #0 {
  %3 = alloca [100 x i32], align 16
  %4 = bitcast [100 x i32]* %3 to i8*
  call void @llvm.lifetime.start.p0i8(i64 400, i8* nonnull %4) #5
  %5 = icmp sgt i32 %1, %0
  br i1 %5, label %40, label %6

6:                                                ; preds = %2, %18
  %7 = phi i32 [ %19, %18 ], [ 0, %2 ]
  %8 = phi i32 [ %20, %18 ], [ %1, %2 ]
  %9 = mul nsw i32 %8, %8
  %10 = icmp sgt i32 %9, %0
  br i1 %10, label %22, label %11

11:                                               ; preds = %6
  %12 = srem i32 %0, %8
  %13 = icmp eq i32 %12, 0
  br i1 %13, label %14, label %18

14:                                               ; preds = %11
  %15 = sext i32 %7 to i64
  %16 = getelementptr inbounds [100 x i32], [100 x i32]* %3, i64 0, i64 %15
  store i32 %8, i32* %16, align 4, !tbaa !5
  %17 = add nsw i32 %7, 1
  br label %18

18:                                               ; preds = %11, %14
  %19 = phi i32 [ %17, %14 ], [ %7, %11 ]
  %20 = add i32 %8, 1
  %21 = icmp eq i32 %8, %0
  br i1 %21, label %40, label %6, !llvm.loop !9

22:                                               ; preds = %6
  %23 = icmp sgt i32 %7, 2
  br i1 %23, label %28, label %24

24:                                               ; preds = %22
  %25 = icmp ne i32 %0, 2
  %26 = icmp sgt i32 %7, 0
  %27 = select i1 %26, i1 %25, i1 false
  br i1 %27, label %28, label %40

28:                                               ; preds = %22, %24
  %29 = zext i32 %7 to i64
  br label %30

30:                                               ; preds = %28, %30
  %31 = phi i64 [ 0, %28 ], [ %38, %30 ]
  %32 = phi i32 [ 1, %28 ], [ %37, %30 ]
  %33 = getelementptr inbounds [100 x i32], [100 x i32]* %3, i64 0, i64 %31
  %34 = load i32, i32* %33, align 4, !tbaa !5
  %35 = sdiv i32 %0, %34
  %36 = tail call i32 @func(i32 %35, i32 %34)
  %37 = add nsw i32 %36, %32
  %38 = add nuw nsw i64 %31, 1
  %39 = icmp eq i64 %38, %29
  br i1 %39, label %40, label %30, !llvm.loop !11

40:                                               ; preds = %18, %30, %2, %24
  %41 = phi i32 [ 1, %24 ], [ 1, %2 ], [ %37, %30 ], [ 1, %18 ]
  call void @llvm.lifetime.end.p0i8(i64 400, i8* nonnull %4) #5
  ret i32 %41
}

; Function Attrs: argmemonly mustprogress nofree nosync nounwind willreturn
declare void @llvm.lifetime.start.p0i8(i64 immarg, i8* nocapture) #1

; Function Attrs: argmemonly mustprogress nofree nosync nounwind willreturn
declare void @llvm.lifetime.end.p0i8(i64 immarg, i8* nocapture) #1

; Function Attrs: nofree nounwind sspstrong uwtable
define dso_local i32 @main() local_unnamed_addr #2 {
  %1 = alloca i32, align 4
  %2 = alloca i32, align 4
  %3 = alloca [100 x i32], align 16
  %4 = bitcast i32* %1 to i8*
  call void @llvm.lifetime.start.p0i8(i64 4, i8* nonnull %4) #5
  %5 = bitcast i32* %2 to i8*
  call void @llvm.lifetime.start.p0i8(i64 4, i8* nonnull %5) #5
  %6 = bitcast [100 x i32]* %3 to i8*
  call void @llvm.lifetime.start.p0i8(i64 400, i8* nonnull %6) #5
  call void @llvm.memset.p0i8.i64(i8* noundef nonnull align 16 dereferenceable(400) %6, i8 0, i64 400, i1 false)
  %7 = call i32 (i8*, ...) @__isoc99_scanf(i8* getelementptr inbounds ([3 x i8], [3 x i8]* @.str, i64 0, i64 0), i32* nonnull %1)
  %8 = load i32, i32* %1, align 4, !tbaa !5
  %9 = icmp sgt i32 %8, 0
  br i1 %9, label %15, label %32

10:                                               ; preds = %15
  %11 = trunc i64 %21 to i32
  %12 = icmp eq i32 %11, 0
  br i1 %12, label %32, label %13

13:                                               ; preds = %10
  %14 = and i64 %21, 4294967295
  br label %25

15:                                               ; preds = %0, %15
  %16 = phi i64 [ %21, %15 ], [ 0, %0 ]
  %17 = call i32 (i8*, ...) @__isoc99_scanf(i8* getelementptr inbounds ([3 x i8], [3 x i8]* @.str, i64 0, i64 0), i32* nonnull %2)
  %18 = load i32, i32* %2, align 4, !tbaa !5
  %19 = call i32 @func(i32 %18, i32 2)
  %20 = getelementptr inbounds [100 x i32], [100 x i32]* %3, i64 0, i64 %16
  store i32 %19, i32* %20, align 4, !tbaa !5
  %21 = add nuw nsw i64 %16, 1
  %22 = load i32, i32* %1, align 4, !tbaa !5
  %23 = sext i32 %22 to i64
  %24 = icmp slt i64 %21, %23
  br i1 %24, label %15, label %10, !llvm.loop !12

25:                                               ; preds = %13, %25
  %26 = phi i64 [ 0, %13 ], [ %30, %25 ]
  %27 = getelementptr inbounds [100 x i32], [100 x i32]* %3, i64 0, i64 %26
  %28 = load i32, i32* %27, align 4, !tbaa !5
  %29 = call i32 (i8*, ...) @printf(i8* nonnull dereferenceable(1) getelementptr inbounds ([4 x i8], [4 x i8]* @.str.1, i64 0, i64 0), i32 %28)
  %30 = add nuw nsw i64 %26, 1
  %31 = icmp eq i64 %30, %14
  br i1 %31, label %32, label %25, !llvm.loop !13

32:                                               ; preds = %25, %0, %10
  call void @llvm.lifetime.end.p0i8(i64 400, i8* nonnull %6) #5
  call void @llvm.lifetime.end.p0i8(i64 4, i8* nonnull %5) #5
  call void @llvm.lifetime.end.p0i8(i64 4, i8* nonnull %4) #5
  ret i32 0
}

; Function Attrs: argmemonly mustprogress nofree nounwind willreturn writeonly
declare void @llvm.memset.p0i8.i64(i8* nocapture writeonly, i8, i64, i1 immarg) #3

; Function Attrs: nofree nounwind
declare noundef i32 @__isoc99_scanf(i8* nocapture noundef readonly, ...) local_unnamed_addr #4

; Function Attrs: nofree nounwind
declare noundef i32 @printf(i8* nocapture noundef readonly, ...) local_unnamed_addr #4


!llvm.module.flags = !{!0, !1, !2, !3}
!llvm.ident = !{!4}

!0 = !{i32 1, !"wchar_size", i32 4}
!1 = !{i32 7, !"PIC Level", i32 2}
!2 = !{i32 7, !"PIE Level", i32 2}
!3 = !{i32 7, !"uwtable", i32 1}
!4 = !{!"clang version 13.0.0"}
!5 = !{!6, !6, i64 0}
!6 = !{!"int", !7, i64 0}
!7 = !{!"omnipotent char", !8, i64 0}
!8 = !{!"Simple C/C++ TBAA"}
!9 = distinct !{!9, !10}
!10 = !{!"llvm.loop.mustprogress"}
!11 = distinct !{!11, !10}
!12 = distinct !{!12, !10}
!13 = distinct !{!13, !10}
